; ModuleID = 'source-C-CXX/26/834.c'
source_filename = "source-C-CXX/26/834.c"
target datalayout = "e-m:e-p270:32:32-p271:32:32-p272:64:64-i64:64-f80:128-n8:16:32:64-S128"
target triple = "x86_64-pc-linux-gnu"

@.str = private unnamed_addr constant [17 x i8] c"x1=%.5f;x2=%.5f\0A\00", align 1
@.str.1 = private unnamed_addr constant [12 x i8] c"x1=x2=%.5f\0A\00", align 1
@.str.2 = private unnamed_addr constant [29 x i8] c"x1=%.5f+%.5fi;x2=%.5f-%.5fi\0A\00", align 1
@.str.3 = private unnamed_addr constant [4 x i8] c"%d\0A\00", align 1
@.str.4 = private unnamed_addr constant [10 x i8] c"%lf%lf%lf\00", align 1

; Function Attrs: nofree nounwind sspstrong uwtable
define dso_local i32 @qj(double %0, double %1, double %2) local_unnamed_addr #0 {
  %4 = fmul double %1, %1
  %5 = fmul double %0, 4.000000e+00
  %6 = fmul double %5, %2
  %7 = fsub double %4, %6
  %8 = fcmp ogt double %7, 0.000000e+00
  br i1 %8, label %9, label %21

9:                                                ; preds = %3
  %10 = fneg double %1
  %11 = tail call double @sqrt(double %7) #4
  %12 = fsub double %11, %1
  %13 = fmul double %0, 2.000000e+00
  %14 = fdiv double %12, %13
  %15 = tail call double @sqrt(double %7) #4
  %16 = fsub double %10, %15
  %17 = fdiv double %16, %13
  %18 = fcmp oeq double %14, 0.000000e+00
  %19 = select i1 %18, double 0.000000e+00, double %14
  %20 = tail call i32 (i8*, ...) @printf(i8* nonnull dereferenceable(1) getelementptr inbounds ([17 x i8], [17 x i8]* @.str, i64 0, i64 0), double %19, double %17)
  br label %37

21:                                               ; preds = %3
  %22 = fcmp oeq double %7, 0.000000e+00
  %23 = fneg double %1
  %24 = fmul double %0, 2.000000e+00
  %25 = fdiv double %23, %24
  br i1 %22, label %26, label %30

26:                                               ; preds = %21
  %27 = fcmp oeq double %25, 0.000000e+00
  %28 = select i1 %27, double 0.000000e+00, double %25
  %29 = tail call i32 (i8*, ...) @printf(i8* nonnull dereferenceable(1) getelementptr inbounds ([12 x i8], [12 x i8]* @.str.1, i64 0, i64 0), double %28)
  br label %37

30:                                               ; preds = %21
  %31 = fneg double %7
  %32 = tail call double @sqrt(double %31) #4
  %33 = fdiv double %32, %24
  %34 = fcmp oeq double %25, 0.000000e+00
  %35 = select i1 %34, double 0.000000e+00, double %25
  %36 = tail call i32 (i8*, ...) @printf(i8* nonnull dereferenceable(1) getelementptr inbounds ([29 x i8], [29 x i8]* @.str.2, i64 0, i64 0), double %35, double %33, double %35, double %33)
  br label %37

37:                                               ; preds = %26, %30, %9
  ret i32 undef
}

; Function Attrs: argmemonly mustprogress nofree nosync nounwind willreturn
declare void @llvm.lifetime.start.p0i8(i64 immarg, i8* nocapture) #1

; Function Attrs: mustprogress nofree nounwind willreturn
declare double @sqrt(double) local_unnamed_addr #2

; Function Attrs: nofree nounwind
declare noundef i32 @printf(i8* nocapture noundef readonly, ...) local_unnamed_addr #3

; Function Attrs: argmemonly mustprogress nofree nosync nounwind willreturn
declare void @llvm.lifetime.end.p0i8(i64 immarg, i8* nocapture) #1

; Function Attrs: nofree nounwind sspstrong uwtable
define dso_local i32 @main() local_unnamed_addr #0 {
  %1 = alloca double, align 8
  %2 = alloca double, align 8
  %3 = alloca double, align 8
  %4 = alloca i32, align 4
  %5 = bitcast double* %1 to i8*
  call void @llvm.lifetime.start.p0i8(i64 8, i8* nonnull %5) #4
  %6 = bitcast double* %2 to i8*
  call void @llvm.lifetime.start.p0i8(i64 8, i8* nonnull %6) #4
  %7 = bitcast double* %3 to i8*
  call void @llvm.lifetime.start.p0i8(i64 8, i8* nonnull %7) #4
  %8 = bitcast i32* %4 to i8*
  call void @llvm.lifetime.start.p0i8(i64 4, i8* nonnull %8) #4
  %9 = call i32 (i8*, ...) @__isoc99_scanf(i8* getelementptr inbounds ([4 x i8], [4 x i8]* @.str.3, i64 0, i64 0), i32* nonnull %4)
  %10 = load i32, i32* %4, align 4, !tbaa !5
  %11 = icmp sgt i32 %10, 0
  br i1 %11, label %12, label %55

12:                                               ; preds = %0, %51
  %13 = phi i32 [ %52, %51 ], [ 0, %0 ]
  %14 = call i32 (i8*, ...) @__isoc99_scanf(i8* getelementptr inbounds ([10 x i8], [10 x i8]* @.str.4, i64 0, i64 0), double* nonnull %1, double* nonnull %2, double* nonnull %3)
  %15 = load double, double* %1, align 8, !tbaa !9
  %16 = load double, double* %2, align 8, !tbaa !9
  %17 = load double, double* %3, align 8, !tbaa !9
  %18 = fmul double %16, %16
  %19 = fmul double %15, 4.000000e+00
  %20 = fmul double %19, %17
  %21 = fsub double %18, %20
  %22 = fcmp ogt double %21, 0.000000e+00
  br i1 %22, label %23, label %35

23:                                               ; preds = %12
  %24 = fneg double %16
  %25 = call double @sqrt(double %21) #4
  %26 = fsub double %25, %16
  %27 = fmul double %15, 2.000000e+00
  %28 = fdiv double %26, %27
  %29 = call double @sqrt(double %21) #4
  %30 = fsub double %24, %29
  %31 = fdiv double %30, %27
  %32 = fcmp oeq double %28, 0.000000e+00
  %33 = select i1 %32, double 0.000000e+00, double %28
  %34 = call i32 (i8*, ...) @printf(i8* nonnull dereferenceable(1) getelementptr inbounds ([17 x i8], [17 x i8]* @.str, i64 0, i64 0), double %33, double %31) #4
  br label %51

35:                                               ; preds = %12
  %36 = fcmp oeq double %21, 0.000000e+00
  %37 = fneg double %16
  %38 = fmul double %15, 2.000000e+00
  %39 = fdiv double %37, %38
  br i1 %36, label %40, label %44

40:                                               ; preds = %35
  %41 = fcmp oeq double %39, 0.000000e+00
  %42 = select i1 %41, double 0.000000e+00, double %39
  %43 = call i32 (i8*, ...) @printf(i8* nonnull dereferenceable(1) getelementptr inbounds ([12 x i8], [12 x i8]* @.str.1, i64 0, i64 0), double %42) #4
  br label %51

44:                                               ; preds = %35
  %45 = fneg double %21
  %46 = call double @sqrt(double %45) #4
  %47 = fdiv double %46, %38
  %48 = fcmp oeq double %39, 0.000000e+00
  %49 = select i1 %48, double 0.000000e+00, double %39
  %50 = call i32 (i8*, ...) @printf(i8* nonnull dereferenceable(1) getelementptr inbounds ([29 x i8], [29 x i8]* @.str.2, i64 0, i64 0), double %49, double %47, double %49, double %47) #4
  br label %51

51:                                               ; preds = %23, %40, %44
  %52 = add nuw nsw i32 %13, 1
  %53 = load i32, i32* %4, align 4, !tbaa !5
  %54 = icmp slt i32 %52, %53
  br i1 %54, label %12, label %55, !llvm.loop !11

55:                                               ; preds = %51, %0
  call void @llvm.lifetime.end.p0i8(i64 4, i8* nonnull %8) #4
  call void @llvm.lifetime.end.p0i8(i64 8, i8* nonnull %7) #4
  call void @llvm.lifetime.end.p0i8(i64 8, i8* nonnull %6) #4
  call void @llvm.lifetime.end.p0i8(i64 8, i8* nonnull %5) #4
  ret i32 0
}

; Function Attrs: nofree nounwind
declare noundef i32 @__isoc99_scanf(i8* nocapture noundef readonly, ...) local_unnamed_addr #3


!llvm.module.flags = !{!0, !1, !2, !3}
!llvm.ident = !{!4}

!0 = !{i32 1, !"wchar_size", i32 4}
!1 = !{i32 7, !"PIC Level", i32 2}
!2 = !{i32 7, !"PIE Level", i32 2}
!3 = !{i32 7, !"uwtable", i32 1}
!4 = !{!"clang version 13.0.0"}
!5 = !{!6, !6, i64 0}
!6 = !{!"int", !7, i64 0}
!7 = !{!"omnipotent char", !8, i64 0}
!8 = !{!"Simple C/C++ TBAA"}
!9 = !{!10, !10, i64 0}
!10 = !{!"double", !7, i64 0}
!11 = distinct !{!11, !12}
!12 = !{!"llvm.loop.mustprogress"}
